(dp0
S'history'
p1
ccopy_reg
_reconstructor
p2
(cdeap.tools.support
History
p3
c__builtin__
object
p4
Ntp5
Rp6
(dp7
S'genealogy_tree'
p8
(dp9
I1
(tsI2
(tsI3
(I1
I2
I1
I2
tp10
sI4
g10
sI5
g10
sI6
g10
ssS'genealogy_index'
p11
I6
sS'genealogy_history'
p12
(dp13
I1
g2
(cbluepyopt.deapext.optimisations
WSListIndividual
p14
c__builtin__
list
p15
(lp16
F8.459776330097977e-05
aF0.1515908805880605
aF0.336457264664676
aF2.5891675029296335e-05
aF5.112747213686086e-05
aF4.049341374504143e-05
aF0.05486590123243409
aF0.06066254521578549
aF0.09531939083047117
aF0.0005833820394550312
aF0.004540564425976676
aF8.065615981443464
aF0.28219692547750397
aF7.55804204157224e-05
aF6.183689966753316e-05
aF0.0020040507308995243
aF0.009097462559682402
aF0.005896712856225918
aF0.0008102172359965896
aF0.004510829752197913
aF5.342065970470657
aF0.7299668323859986
atp17
Rp18
(dp19
S'history_index'
p20
I1
sS'fitness'
p21
g2
(cbluepyopt.deapext.optimisations
WeightedSumFitness
p22
g4
Ntp23
Rp24
(dp25
S'weights'
p26
(lp27
F-1.0
aF-1.0
aF-1.0
aF-1.0
aF-1.0
aF-1.0
aF-1.0
aF-1.0
aF-1.0
aF-1.0
aF-1.0
aF-1.0
aF-1.0
aF-1.0
aF-1.0
aF-1.0
aF-1.0
aF-1.0
aF-1.0
aF-1.0
aF-1.0
aF-1.0
aF-1.0
aF-1.0
aF-1.0
aF-1.0
aF-1.0
aF-1.0
aF-1.0
aF-1.0
aF-1.0
aF-1.0
aF-1.0
aF-1.0
aF-1.0
aF-1.0
aF-1.0
aF-1.0
aF-1.0
aF-1.0
aF-1.0
aF-1.0
aF-1.0
aF-1.0
asS'wvalues'
p28
(cnumpy.core._multiarray_umath
scalar
p29
(cnumpy
dtype
p30
(S'f8'
p31
I0
I1
tp32
Rp33
(I3
S'<'
p34
NNNI-1
I-1
I0
tp35
bS'\x00\x00\x00\x00\x00\x00\x00\x80'
p36
tp37
Rp38
g29
(g33
S'\nw\x81\x99?\x0c\xed\xbf'
p39
tp40
Rp41
g29
(g33
S'\x00\x00\x00\x00\x00\x00\x00\x80'
p42
tp43
Rp44
g29
(g33
S'\x9a5n\x14R\x84\r\xc0'
p45
tp46
Rp47
F-250.0
F-250.0
F-250.0
g29
(g33
S'q\xd5\xb5p\x178\x02\xc0'
p48
tp49
Rp50
F-250.0
g29
(g33
S'\xf5\xdbA\x82\xeb\xd1\xfd\xbf'
p51
tp52
Rp53
g29
(g33
S"\xba\x12'}\xe6f\xfa\xbf"
p54
tp55
Rp56
g29
(g33
S"\x85\x838\x807'\x00\xc0"
p57
tp58
Rp59
F-250.0
g29
(g33
S'\x8eJW\xec\xc8\x80\x1d\xc0'
p60
tp61
Rp62
g29
(g33
S'\xfd\xe2K\\\xedv\xfc\xbf'
p63
tp64
Rp65
F-250.0
F-250.0
F-250.0
g29
(g33
S'\xc7<\x11\x180\t\x02\xc0'
p66
tp67
Rp68
F-250.0
g29
(g33
S'\xe4)\xc9\xc8\x8cT\xff\xbf'
p69
tp70
Rp71
g29
(g33
S'8u\xf3=Z\xe1\xfe\xbf'
p72
tp73
Rp74
g29
(g33
S'\xf4^+\xaf\x9b=\x02\xc0'
p75
tp76
Rp77
F-250.0
g29
(g33
S'\x00\x00\x00\x00\x00\x00\x00\x80'
p78
tp79
Rp80
F-250.0
F-250.0
F-250.0
g29
(g33
S'so\xef\x87\x7f}\x01\xc0'
p81
tp82
Rp83
F-250.0
g29
(g33
S'\x99\xe3\xc0\x87\xff\xd9\xf8\xbf'
p84
tp85
Rp86
g29
(g33
S'\x05\xb9e\x1c\x81\xde\xf4\xbf'
p87
tp88
Rp89
g29
(g33
S'\xf4\xc3\xd5t\x7f\xdc\x00\xc0'
p90
tp91
Rp92
F-250.0
g29
(g33
S'\xad\xb3.\x08\x8e\xce\x18\xc0'
p93
tp94
Rp95
F-250.0
F-250.0
F-250.0
g29
(g33
S'\xd2\xee\xa5\xbb,^\x14\xc0'
p96
tp97
Rp98
g29
(g33
S'd\xac\x8fZ\xddD\x19\xc0'
p99
tp100
Rp101
g29
(g33
S'\xae\x11 \x1cE!\x12\xc0'
p102
tp103
Rp104
g29
(g33
S'\xdc\xc9B\x86rZ\n\xc0'
p105
tp106
Rp107
g29
(g33
S'\x1e7D\xdd\xca\xaf\x18\xc0'
p108
tp109
Rp110
g29
(g33
S'\xdcAp"\x19\xee\xf3\xbf'
p111
tp112
Rp113
tp114
sbsbsI2
g2
(g14
g15
(lp115
F8.998499050883135e-05
aF0.13679678638308826
aF0.3777141723621707
aF1.007012080683658e-05
aF4.3417183545378374e-05
aF6.108869734438017e-05
aF0.06391077372665288
aF0.19332127355415177
aF0.09540195531054341
aF0.0008653099277716401
aF0.001302461551959797
aF12.270389578182312
aF0.5489249541836715
aF1.4041700164018957e-06
aF7.197046864039541e-05
aF0.00319058833779415
aF0.00824844977148233
aF0.004008919207391105
aF1.1428193144282783e-06
aF0.0024678893323266233
aF13.146438856898932
aF0.2442889214486884
atp116
Rp117
(dp118
g20
I2
sg21
g2
(g22
g4
Ntp119
Rp120
(dp121
g26
(lp122
F-1.0
aF-1.0
aF-1.0
aF-1.0
aF-1.0
aF-1.0
aF-1.0
aF-1.0
aF-1.0
aF-1.0
aF-1.0
aF-1.0
aF-1.0
aF-1.0
aF-1.0
aF-1.0
aF-1.0
aF-1.0
aF-1.0
aF-1.0
aF-1.0
aF-1.0
aF-1.0
aF-1.0
aF-1.0
aF-1.0
aF-1.0
aF-1.0
aF-1.0
aF-1.0
aF-1.0
aF-1.0
aF-1.0
aF-1.0
aF-1.0
aF-1.0
aF-1.0
aF-1.0
aF-1.0
aF-1.0
aF-1.0
aF-1.0
aF-1.0
aF-1.0
asg28
(g29
(g33
S'\x00\x00\x00\x00\x00\x00\x00\x80'
p123
tp124
Rp125
g29
(g33
S'L#\x1d@\xf6D\xcb\xbf'
p126
tp127
Rp128
g29
(g33
S'\x00\x00\x00\x00\x00\x00\x00\x80'
p129
tp130
Rp131
g29
(g33
S'\x01$G\xe0:\xbd\x15\xc0'
p132
tp133
Rp134
F-250.0
F-250.0
F-250.0
g29
(g33
S'q\xd5\xb5p\x178\x02\xc0'
p135
tp136
Rp137
F-250.0
g29
(g33
S'\xf5\xdbA\x82\xeb\xd1\xfd\xbf'
p138
tp139
Rp140
g29
(g33
S"\xba\x12'}\xe6f\xfa\xbf"
p141
tp142
Rp143
g29
(g33
S"\x85\x838\x807'\x00\xc0"
p144
tp145
Rp146
F-250.0
g29
(g33
S'\x0e\x94\x0b{e\x8c$\xc0'
p147
tp148
Rp149
g29
(g33
S'\xc6\x17\xd4\xf5H\xab\xfd\xbf'
p150
tp151
Rp152
F-250.0
F-250.0
F-250.0
g29
(g33
S'\xc7<\x11\x180\t\x02\xc0'
p153
tp154
Rp155
F-250.0
g29
(g33
S'\xe4)\xc9\xc8\x8cT\xff\xbf'
p156
tp157
Rp158
g29
(g33
S'8u\xf3=Z\xe1\xfe\xbf'
p159
tp160
Rp161
g29
(g33
S'\xf4^+\xaf\x9b=\x02\xc0'
p162
tp163
Rp164
F-250.0
g29
(g33
S'\x00\x00\x00\x00\x00\x00\x00\x80'
p165
tp166
Rp167
F-250.0
F-250.0
F-250.0
g29
(g33
S'so\xef\x87\x7f}\x01\xc0'
p168
tp169
Rp170
F-250.0
g29
(g33
S'\x99\xe3\xc0\x87\xff\xd9\xf8\xbf'
p171
tp172
Rp173
g29
(g33
S'\x05\xb9e\x1c\x81\xde\xf4\xbf'
p174
tp175
Rp176
g29
(g33
S'\xf4\xc3\xd5t\x7f\xdc\x00\xc0'
p177
tp178
Rp179
F-250.0
g29
(g33
S'A\x0b\xd8\xa9\xf6+\xe7\xbf'
p180
tp181
Rp182
F-250.0
F-250.0
F-250.0
g29
(g33
S'\xd2\xee\xa5\xbb,^\x14\xc0'
p183
tp184
Rp185
g29
(g33
S'd\xac\x8fZ\xddD\x19\xc0'
p186
tp187
Rp188
g29
(g33
S'\xae\x11 \x1cE!\x12\xc0'
p189
tp190
Rp191
g29
(g33
S'\xdc\xc9B\x86rZ\n\xc0'
p192
tp193
Rp194
g29
(g33
S'fD\x88\x13\xad\xab\x02\xc0'
p195
tp196
Rp197
g29
(g33
S'\\\xb8`\xa0\x00\xd5\xf3\xbf'
p198
tp199
Rp200
tp201
sbsbsI3
g2
(g14
g15
(lp202
F8.459776330097977e-05
aF0.1515908805880605
aF0.336457264664676
aF2.5891675029296335e-05
aF5.112747213686086e-05
aF4.049341374504143e-05
aF0.05486590123243409
aF0.06066254521578549
aF0.09531939083047117
aF0.0005833820394550312
aF0.004540564425976676
aF8.065615981443464
aF0.28219692547750397
aF7.55804204157224e-05
aF6.183689966753316e-05
aF0.0020040507308995243
aF0.009097462559682402
aF0.005896712856225918
aF0.0008102172359965896
aF0.004510829752197913
aF5.342065970470657
aF0.7299668323859986
atp203
Rp204
(dp205
g20
I3
sg21
g2
(g22
g4
Ntp206
Rp207
(dp208
g26
g27
sg28
g114
sbsbsI4
g2
(g14
g15
(lp209
F8.998499050883135e-05
aF0.13679678638308826
aF0.3777141723621707
aF1.007012080683658e-05
aF4.3417183545378374e-05
aF6.108869734438017e-05
aF0.06391077372665288
aF0.19332127355415177
aF0.09540195531054341
aF0.0008653099277716401
aF0.001302461551959797
aF12.270389578182312
aF0.5489249541836715
aF1.4041700164018957e-06
aF7.197046864039541e-05
aF0.00319058833779415
aF0.00824844977148233
aF0.004008919207391105
aF1.1428193144282783e-06
aF0.0024678893323266233
aF13.146438856898932
aF0.2442889214486884
atp210
Rp211
(dp212
g20
I4
sg21
g2
(g22
g4
Ntp213
Rp214
(dp215
g26
g122
sg28
g201
sbsbsI5
g2
(g14
g15
(lp216
F8.459776330097977e-05
aF0.15168906708994337
aF0.336457264664676
aF3.058343996090739e-05
aF5.9022049332218484e-05
aF4.049341374504143e-05
aF0.05486590123243409
aF0.06000995579013797
aF0.09531939083047117
aF0.0005833820394550312
aF0.0046462799281463815
aF8.065615981443464
aF0.28219692547750397
aF7.55804204157224e-05
aF7.4296780638054e-05
aF0.0022203480307705324
aF0.009061603766623298
aF0.005942316155463084
aF0.0007384762374565938
aF0.002615491103308344
aF6.557721287233644
aF0.6243445607373651
atp217
Rp218
(dp219
g20
I5
sg21
g2
(g22
g4
Ntp220
Rp221
(dp222
g26
g27
sg28
(g29
(g33
S'\x00\x00\x00\x00\x00\x00\x00\x80'
p223
tp224
Rp225
g29
(g33
S'\xa7\xaa\x02*\x1e<\xed\xbf'
p226
tp227
Rp228
g29
(g33
S'\x00\x00\x00\x00\x00\x00\x00\x80'
p229
tp230
Rp231
g29
(g33
S'\x946e\xdf9\x7f\r\xc0'
p232
tp233
Rp234
F-250.0
F-250.0
F-250.0
g29
(g33
S'q\xd5\xb5p\x178\x02\xc0'
p235
tp236
Rp237
F-250.0
g29
(g33
S'\xf5\xdbA\x82\xeb\xd1\xfd\xbf'
p238
tp239
Rp240
g29
(g33
S"\xba\x12'}\xe6f\xfa\xbf"
p241
tp242
Rp243
g29
(g33
S"\x85\x838\x807'\x00\xc0"
p244
tp245
Rp246
F-250.0
g29
(g33
S'@\x1b\x94\x91~{\x1d\xc0'
p247
tp248
Rp249
g29
(g33
S'\xc7\xf5\xdemVg\xfc\xbf'
p250
tp251
Rp252
F-250.0
F-250.0
F-250.0
g29
(g33
S'\xc7<\x11\x180\t\x02\xc0'
p253
tp254
Rp255
F-250.0
g29
(g33
S'\xe4)\xc9\xc8\x8cT\xff\xbf'
p256
tp257
Rp258
g29
(g33
S'8u\xf3=Z\xe1\xfe\xbf'
p259
tp260
Rp261
g29
(g33
S'\xf4^+\xaf\x9b=\x02\xc0'
p262
tp263
Rp264
F-250.0
g29
(g33
S'\x00\x00\x00\x00\x00\x00\x00\x80'
p265
tp266
Rp267
F-250.0
F-250.0
F-250.0
g29
(g33
S'so\xef\x87\x7f}\x01\xc0'
p268
tp269
Rp270
F-250.0
g29
(g33
S'\x99\xe3\xc0\x87\xff\xd9\xf8\xbf'
p271
tp272
Rp273
g29
(g33
S'\x05\xb9e\x1c\x81\xde\xf4\xbf'
p274
tp275
Rp276
g29
(g33
S'\xf4\xc3\xd5t\x7f\xdc\x00\xc0'
p277
tp278
Rp279
F-250.0
g29
(g33
S'\x1fN\xa1\xfa\xba\xf9\x18\xc0'
p280
tp281
Rp282
F-250.0
F-250.0
F-250.0
g29
(g33
S'\xd2\xee\xa5\xbb,^\x14\xc0'
p283
tp284
Rp285
g29
(g33
S'd\xac\x8fZ\xddD\x19\xc0'
p286
tp287
Rp288
g29
(g33
S'\xae\x11 \x1cE!\x12\xc0'
p289
tp290
Rp291
g29
(g33
S'\xdc\xc9B\x86rZ\n\xc0'
p292
tp293
Rp294
g29
(g33
S'q\xd2`\xc1\x9b\xde\x18\xc0'
p295
tp296
Rp297
g29
(g33
S'\xcbt\x17|#\xcd\xf3\xbf'
p298
tp299
Rp300
tp301
sbsbsI6
g2
(g14
g15
(lp302
F9.094879779990037e-05
aF0.1366985998811062
aF0.3777141723621707
aF1.007012080683658e-05
aF4.682722002434101e-05
aF6.108869734438017e-05
aF0.06391077372665288
aF0.1873655711711291
aF0.09540195531054341
aF0.0006169669963403399
aF0.001302461551959797
aF10.602709904797184
aF0.6289506896678183
aF1.4041700164018957e-06
aF6.028389833499836e-05
aF0.002730997230902337
aF0.008550495952499656
aF0.003477632527733394
aF1.1428193144282783e-06
aF0.0036857304306474217
aF13.146438856898932
aF0.21611889680663607
atp303
Rp304
(dp305
g20
I6
sg21
g2
(g22
g4
Ntp306
Rp307
(dp308
g26
g122
sg28
(g29
(g33
S'\x00\x00\x00\x00\x00\x00\x00\x80'
p309
tp310
Rp311
g29
(g33
S'\x81\xbd\xd3\xf5s\x03\xcb\xbf'
p312
tp313
Rp314
g29
(g33
S'\x00\x00\x00\x00\x00\x00\x00\x80'
p315
tp316
Rp317
g29
(g33
S'b\xd4\xe4H8\xdc\x15\xc0'
p318
tp319
Rp320
F-250.0
F-250.0
F-250.0
g29
(g33
S'q\xd5\xb5p\x178\x02\xc0'
p321
tp322
Rp323
F-250.0
g29
(g33
S'\xf5\xdbA\x82\xeb\xd1\xfd\xbf'
p324
tp325
Rp326
g29
(g33
S"\xba\x12'}\xe6f\xfa\xbf"
p327
tp328
Rp329
g29
(g33
S"\x85\x838\x807'\x00\xc0"
p330
tp331
Rp332
F-250.0
g29
(g33
S'\xc1`\x9b\x10\x02\xa7$\xc0'
p333
tp334
Rp335
g29
(g33
S'\x14;\xc5|\xef\xd1\xfd\xbf'
p336
tp337
Rp338
F-250.0
F-250.0
F-250.0
g29
(g33
S'\xc7<\x11\x180\t\x02\xc0'
p339
tp340
Rp341
F-250.0
g29
(g33
S'\xe4)\xc9\xc8\x8cT\xff\xbf'
p342
tp343
Rp344
g29
(g33
S'8u\xf3=Z\xe1\xfe\xbf'
p345
tp346
Rp347
g29
(g33
S'\xf4^+\xaf\x9b=\x02\xc0'
p348
tp349
Rp350
F-250.0
g29
(g33
S'\x00\x00\x00\x00\x00\x00\x00\x80'
p351
tp352
Rp353
F-250.0
F-250.0
F-250.0
g29
(g33
S'so\xef\x87\x7f}\x01\xc0'
p354
tp355
Rp356
F-250.0
g29
(g33
S'\x99\xe3\xc0\x87\xff\xd9\xf8\xbf'
p357
tp358
Rp359
g29
(g33
S'\x05\xb9e\x1c\x81\xde\xf4\xbf'
p360
tp361
Rp362
g29
(g33
S'\xf4\xc3\xd5t\x7f\xdc\x00\xc0'
p363
tp364
Rp365
F-250.0
g29
(g33
S'\x10\xe2\x8e\xdb\xe8\xbc\xe8\xbf'
p366
tp367
Rp368
F-250.0
F-250.0
F-250.0
g29
(g33
S'\xd2\xee\xa5\xbb,^\x14\xc0'
p369
tp370
Rp371
g29
(g33
S'd\xac\x8fZ\xddD\x19\xc0'
p372
tp373
Rp374
g29
(g33
S'\xae\x11 \x1cE!\x12\xc0'
p375
tp376
Rp377
g29
(g33
S'\xdc\xc9B\x86rZ\n\xc0'
p378
tp379
Rp380
g29
(g33
S'4\x0b\x05PR\xf5\x02\xc0'
p381
tp382
Rp383
g29
(g33
S'\x98kN\xac\xa1\xd6\xf3\xbf'
p384
tp385
Rp386
tp387
sbsbssbsS'parents'
p388
(lp389
g2
(g14
g15
(lp390
F8.459776330097977e-05
aF0.15168906708994337
aF0.336457264664676
aF3.058343996090739e-05
aF5.9022049332218484e-05
aF4.049341374504143e-05
aF0.05486590123243409
aF0.06000995579013797
aF0.09531939083047117
aF0.0005833820394550312
aF0.0046462799281463815
aF8.065615981443464
aF0.28219692547750397
aF7.55804204157224e-05
aF7.4296780638054e-05
aF0.0022203480307705324
aF0.009061603766623298
aF0.005942316155463084
aF0.0007384762374565938
aF0.002615491103308344
aF6.557721287233644
aF0.6243445607373651
atp391
Rp392
(dp393
g20
I5
sS'ibea_fitness'
p394
g29
(g33
S'\x00\x00\x00\x80\xe3%>>'
p395
tp396
Rp397
sg21
g2
(g22
g4
Ntp398
Rp399
(dp400
g26
g27
sg28
g301
sbsbag392
asS'generation'
p401
I2
sS'logbook'
p402
g2
(cdeap.tools.support
Logbook
p403
g15
(lp404
(dp405
S'std'
p406
g29
(g33
S'\x00\xfc\xf4!\x7f0\x05@'
p407
tp408
Rp409
sS'nevals'
p410
I2
sS'min'
p411
g29
(g33
S'o\xdbA\xbe\xb1\xd4\xb1@'
p412
tp413
Rp414
sS'max'
p415
g29
(g33
S'\xaeX\n\xde\xfd\xd9\xb1@'
p416
tp417
Rp418
sS'avg'
p419
g29
(g33
S'\x0e\x1a&\xceW\xd7\xb1@'
p420
tp421
Rp422
sS'gen'
p423
I1
sa(dp424
g406
g29
(g33
S'\xa7\xf8A\xa8\xab\xfe\x04@'
p425
tp426
Rp427
sg410
I2
sg411
g29
(g33
S'o\xdbA\xbe\xb1\xd4\xb1@'
p428
tp429
Rp430
sg415
g29
(g33
S'=\xe2\r\xde\x10\xda\xb1@'
p431
tp432
Rp433
sg419
g29
(g33
S'\xf1\xa5\xfb\xc0g\xd7\xb1@'
p434
tp435
Rp436
sg423
I2
satp437
Rp438
(dp439
S'log_header'
p440
I01
sS'header'
p441
(lp442
g423
ag410
ag419
ag406
ag411
ag415
asS'columns_len'
p443
(lp444
I3
aI6
aI7
aI7
aI7
aI7
asS'buffindex'
p445
I2
sS'chapters'
p446
ccollections
defaultdict
p447
(g403
tp448
Rp449
sbsS'rndstate'
p450
(I3
(L1372342863L
L3221959423L
L4180954279L
L3990540705L
L1021773023L
L2223090966L
L3843864895L
L597749037L
L4038628808L
L2184695301L
L2599863370L
L1285463076L
L3619013288L
L3445797418L
L662770754L
L586125062L
L1346770502L
L3658746180L
L3438111236L
L309182431L
L3796115977L
L3396521978L
L406330169L
L2387780391L
L2469455462L
L2266287431L
L1699932795L
L4049251296L
L2880579946L
L2212080061L
L3732465507L
L2085677040L
L3780473213L
L2666506866L
L2546029306L
L3062944794L
L3831291871L
L2699197260L
L1538606110L
L2628704661L
L2899336459L
L3451611859L
L99931860L
L1959678400L
L1104806618L
L222110430L
L2129932650L
L956476906L
L1123944865L
L4148113835L
L3692694084L
L1144181241L
L329767184L
L3790223790L
L2243139411L
L3664375038L
L1649616822L
L2085955322L
L878670707L
L427637247L
L1097949229L
L3413060003L
L2868874638L
L714350532L
L2486509003L
L3288554389L
L1763249054L
L3065280929L
L3617934738L
L630740700L
L76720155L
L3508325981L
L3932676767L
L1329309665L
L1100166609L
L3150737391L
L3713849116L
L1027154122L
L621059281L
L2649419324L
L1724153688L
L787407208L
L2006574677L
L2947315466L
L1182636319L
L3824689780L
L1212132099L
L4044342334L
L315023297L
L3553864982L
L1157225958L
L1432164329L
L1160723985L
L371272026L
L927525248L
L1908778666L
L1373080387L
L1470677278L
L801074131L
L3914200339L
L3381407135L
L2878632719L
L3924891213L
L4265632409L
L2538399467L
L2281243182L
L3528786809L
L875255179L
L900526794L
L3848503840L
L1800107094L
L99435770L
L2252333719L
L459600575L
L3980788272L
L642015534L
L3185107417L
L3358361764L
L109426005L
L1526990449L
L2897953574L
L735827974L
L292571356L
L656909865L
L1811241718L
L3852326868L
L935626136L
L576421325L
L428560518L
L2760997449L
L2373789786L
L2483545676L
L990053668L
L4260816364L
L2400672108L
L931204375L
L1656208850L
L1752543171L
L3393345042L
L2975883932L
L3535909646L
L441369518L
L1875275912L
L3788298971L
L1604151293L
L3265285628L
L3389517324L
L1129673657L
L158637840L
L3401368526L
L3511603269L
L1365694929L
L2076135726L
L144518747L
L1738447909L
L3315335210L
L696514991L
L2903756646L
L1692635312L
L2492835022L
L793066282L
L3701291598L
L1682146840L
L2833764772L
L1874922241L
L1109375682L
L2157966518L
L2136578897L
L2614256798L
L2861779371L
L2698885417L
L160504417L
L554219202L
L1430333145L
L716754647L
L529846619L
L3482487583L
L829954169L
L2479439816L
L1934256524L
L140815401L
L1125214395L
L1642506558L
L1276896160L
L3983009834L
L1007760484L
L3281113000L
L139221400L
L361504304L
L3713284634L
L2928612637L
L935745191L
L4151018351L
L3848439956L
L3104510935L
L615014456L
L2939062496L
L1306813042L
L2930774231L
L1126465550L
L39679357L
L4157006879L
L3487860998L
L4211840723L
L4199318320L
L3081958281L
L1231549084L
L114041891L
L1456998828L
L4027354301L
L779738931L
L2010884098L
L3007041435L
L1711812332L
L1173077090L
L2341061349L
L2446045442L
L3860139934L
L3135005041L
L1937407922L
L4130038091L
L4004503321L
L3899652703L
L1806610961L
L3173634158L
L3201508203L
L1971746461L
L2278546448L
L2657844960L
L2678611962L
L2241832425L
L1883633391L
L3181942897L
L2792225916L
L1475682425L
L1169520747L
L176579167L
L3554068333L
L4262273005L
L2352440083L
L1253626969L
L572672438L
L1524846517L
L1147813165L
L3942527944L
L3167059431L
L1688983706L
L463078297L
L3955475903L
L894345047L
L3894065346L
L1892851780L
L1869067318L
L3416414633L
L2408185539L
L2584178019L
L1536598083L
L1738798172L
L212705107L
L3295820959L
L2164521947L
L1063447507L
L4125226161L
L1611652661L
L2186239661L
L43480999L
L3233893377L
L1157189060L
L3865800845L
L2580347146L
L3522458126L
L3833272017L
L2577087932L
L3480966526L
L3731431004L
L1721158498L
L1011307417L
L3952810466L
L2262537757L
L642429441L
L971181236L
L362223105L
L1255663603L
L146673027L
L2069157663L
L1273202481L
L120747504L
L3207942888L
L3721730895L
L3643503245L
L3816306763L
L3137048487L
L2860458877L
L1819115946L
L230113293L
L3614309992L
L916806549L
L923982787L
L2460427649L
L467621168L
L934475584L
L1085334794L
L3075553476L
L2827600963L
L614120395L
L763452512L
L3876411276L
L42356791L
L149721240L
L3427418988L
L3168682449L
L3386540377L
L3369227246L
L3430314618L
L585185811L
L3994790629L
L1295417371L
L3112055284L
L3311144040L
L1059910922L
L3540388763L
L455829500L
L3061532685L
L2182265378L
L607235460L
L3248562707L
L3580560719L
L3868768753L
L740125315L
L4068402071L
L4048707696L
L3779755980L
L2863645708L
L3854638905L
L3401978190L
L2702849333L
L2769927328L
L1519450755L
L84928381L
L1224162609L
L1520368433L
L480115764L
L37675693L
L657908362L
L3808994824L
L1171659743L
L2699029399L
L2015754554L
L2753802761L
L2050370709L
L1273170742L
L2140991184L
L4266961092L
L1786701666L
L3880429141L
L759425704L
L45926880L
L836647469L
L1573125967L
L1163571132L
L203220878L
L861333837L
L4060383179L
L2628819199L
L3536629941L
L2457334432L
L1867577917L
L3536511998L
L3697335810L
L3133380389L
L1404482804L
L881246958L
L4135024728L
L534752881L
L595543441L
L33441746L
L4269857928L
L1314335199L
L2505095316L
L1578860014L
L1875057095L
L509159986L
L1944155236L
L70374715L
L2945217752L
L4041521547L
L2966052890L
L145655727L
L714593746L
L1002319513L
L519269594L
L2926922359L
L944143625L
L3916879502L
L2378371484L
L912744193L
L3910705684L
L2276700770L
L4142358138L
L3964824208L
L2780717615L
L4081508385L
L236938235L
L3840831868L
L647425534L
L2210040950L
L2279462069L
L168097603L
L1461160443L
L1580267216L
L2324105764L
L2690677560L
L1690421599L
L3577506112L
L738462960L
L2274273062L
L2504137643L
L3265350434L
L1366106822L
L2974016022L
L1988817242L
L797755685L
L2403760280L
L641540828L
L3788701957L
L2779856144L
L2104598935L
L3745352634L
L1577129078L
L1373804927L
L3903547821L
L2872229328L
L3056383831L
L3072291562L
L2275982065L
L1522674624L
L3582423212L
L3669935104L
L3633938225L
L629521463L
L1238893987L
L3075431842L
L813637316L
L3510510638L
L2917340917L
L2768681237L
L1942077161L
L3758057471L
L1933876081L
L2244433730L
L1480577031L
L1351970442L
L396252158L
L4175666695L
L1357894203L
L234330270L
L3181220453L
L1331961817L
L784329267L
L779668731L
L2328048439L
L1103091157L
L3004928118L
L1162468270L
L3007103493L
L2725514842L
L274062491L
L3149489948L
L2987599126L
L3292515534L
L282168320L
L959822509L
L2291575880L
L3673412248L
L162691783L
L1230667779L
L2485346968L
L2008336037L
L3320353719L
L3822671307L
L3089220377L
L3503681079L
L1302975933L
L3327766732L
L3674135615L
L1073069922L
L2772807178L
L3196662328L
L1713328812L
L1475744247L
L1685385181L
L1643753643L
L3794162811L
L2190568646L
L2689827007L
L3126829736L
L2761526147L
L2511266684L
L1782816864L
L2926893516L
L3512983057L
L2661970973L
L2689095779L
L1199154380L
L382426272L
L643849114L
L807267160L
L1518924385L
L1695080083L
L2934795830L
L4181065090L
L3342589537L
L2406648073L
L1186040699L
L2721983068L
L2970957157L
L3556085447L
L3070386458L
L3046088386L
L1804573955L
L2003863284L
L4166932229L
L2182095175L
L2134701977L
L911628328L
L2867572258L
L1276531023L
L518250163L
L2617826095L
L21746525L
L2080648289L
L1970004495L
L2621101460L
L3726800574L
L155341573L
L2577500508L
L1723761283L
L3633471938L
L222521000L
L2717308343L
L4013182446L
L2258756213L
L771120786L
L815922213L
L3754576141L
L2998487214L
L3115409480L
L3002705922L
L1074978656L
L3006531599L
L823178279L
L416424292L
L43442668L
L1726938224L
L3934805529L
L161873912L
L2803348707L
L1043589181L
L102006005L
L1730373835L
L1210399249L
L2434080783L
L2191863758L
L3057527658L
L3614195070L
L3229819907L
L334710481L
L2664502177L
L1325604787L
L3988671798L
L2576445889L
L2959706600L
L2017397749L
L1080624230L
L903812120L
L1214058725L
L1799750730L
L3417289034L
L807297012L
L1437878312L
L2645448696L
L2089144691L
L1348214076L
L2839011040L
L648098687L
L4294223352L
L3774352159L
L968459174L
L396311303L
L1631056285L
L3504308190L
L1279074970L
L1878080429L
L2991953531L
L3355603528L
L1614988643L
L388314152L
L964861631L
L3836107078L
L126268069L
L1350108355L
L1730114235L
L926577527L
L430314525L
L756676482L
L2364788864L
L3573266150L
L2877606665L
L2554592887L
L2297285047L
L4155839037L
L1342607531L
L1587367306L
L1366061151L
L1625602653L
L1519619151L
L150082289L
L2420444017L
L2103580590L
L1875045396L
L3514756929L
L3527524385L
L3119378202L
L418789356L
L308L
tp451
Ntp452
sS'halloffame'
p453
g2
(cdeap.tools.support
HallOfFame
p454
g4
Ntp455
Rp456
(dp457
S'keys'
p458
(lp459
g2
(g22
g4
Ntp460
Rp461
(dp462
g26
g27
sg28
g301
sbag2
(g22
g4
Ntp463
Rp464
(dp465
g26
g27
sg28
g114
sbag2
(g22
g4
Ntp466
Rp467
(dp468
g26
g122
sg28
g387
sbag2
(g22
g4
Ntp469
Rp470
(dp471
g26
g122
sg28
g201
sbasS'items'
p472
(lp473
g2
(g14
g15
(lp474
F8.998499050883135e-05
aF0.13679678638308826
aF0.3777141723621707
aF1.007012080683658e-05
aF4.3417183545378374e-05
aF6.108869734438017e-05
aF0.06391077372665288
aF0.19332127355415177
aF0.09540195531054341
aF0.0008653099277716401
aF0.001302461551959797
aF12.270389578182312
aF0.5489249541836715
aF1.4041700164018957e-06
aF7.197046864039541e-05
aF0.00319058833779415
aF0.00824844977148233
aF0.004008919207391105
aF1.1428193144282783e-06
aF0.0024678893323266233
aF13.146438856898932
aF0.2442889214486884
atp475
Rp476
(dp477
g21
g470
sbag2
(g14
g15
(lp478
F9.094879779990037e-05
aF0.1366985998811062
aF0.3777141723621707
aF1.007012080683658e-05
aF4.682722002434101e-05
aF6.108869734438017e-05
aF0.06391077372665288
aF0.1873655711711291
aF0.09540195531054341
aF0.0006169669963403399
aF0.001302461551959797
aF10.602709904797184
aF0.6289506896678183
aF1.4041700164018957e-06
aF6.028389833499836e-05
aF0.002730997230902337
aF0.008550495952499656
aF0.003477632527733394
aF1.1428193144282783e-06
aF0.0036857304306474217
aF13.146438856898932
aF0.21611889680663607
atp479
Rp480
(dp481
g20
I2
sg21
g467
sbag2
(g14
g15
(lp482
F8.459776330097977e-05
aF0.1515908805880605
aF0.336457264664676
aF2.5891675029296335e-05
aF5.112747213686086e-05
aF4.049341374504143e-05
aF0.05486590123243409
aF0.06066254521578549
aF0.09531939083047117
aF0.0005833820394550312
aF0.004540564425976676
aF8.065615981443464
aF0.28219692547750397
aF7.55804204157224e-05
aF6.183689966753316e-05
aF0.0020040507308995243
aF0.009097462559682402
aF0.005896712856225918
aF0.0008102172359965896
aF0.004510829752197913
aF5.342065970470657
aF0.7299668323859986
atp483
Rp484
(dp485
g21
g464
sbag2
(g14
g15
(lp486
F8.459776330097977e-05
aF0.15168906708994337
aF0.336457264664676
aF3.058343996090739e-05
aF5.9022049332218484e-05
aF4.049341374504143e-05
aF0.05486590123243409
aF0.06000995579013797
aF0.09531939083047117
aF0.0005833820394550312
aF0.0046462799281463815
aF8.065615981443464
aF0.28219692547750397
aF7.55804204157224e-05
aF7.4296780638054e-05
aF0.0022203480307705324
aF0.009061603766623298
aF0.005942316155463084
aF0.0007384762374565938
aF0.002615491103308344
aF6.557721287233644
aF0.6243445607373651
atp487
Rp488
(dp489
g20
I1
sg21
g461
sbasS'maxsize'
p490
I10
sS'similar'
p491
coperator
eq
p492
sbsS'population'
p493
(lp494
g392
ag2
(g14
g15
(lp495
F8.998499050883135e-05
aF0.13679678638308826
aF0.3777141723621707
aF1.007012080683658e-05
aF4.3417183545378374e-05
aF6.108869734438017e-05
aF0.06391077372665288
aF0.19332127355415177
aF0.09540195531054341
aF0.0008653099277716401
aF0.001302461551959797
aF12.270389578182312
aF0.5489249541836715
aF1.4041700164018957e-06
aF7.197046864039541e-05
aF0.00319058833779415
aF0.00824844977148233
aF0.004008919207391105
aF1.1428193144282783e-06
aF0.0024678893323266233
aF13.146438856898932
aF0.2442889214486884
atp496
Rp497
(dp498
g20
I4
sg394
g29
(g33
S'\xc0\xc54\x10\x9b]\xbe?'
p499
tp500
Rp501
sg21
g2
(g22
g4
Ntp502
Rp503
(dp504
g26
g122
sg28
g201
sbsbag2
(g14
g15
(lp505
F8.459776330097977e-05
aF0.1515908805880605
aF0.336457264664676
aF2.5891675029296335e-05
aF5.112747213686086e-05
aF4.049341374504143e-05
aF0.05486590123243409
aF0.06066254521578549
aF0.09531939083047117
aF0.0005833820394550312
aF0.004540564425976676
aF8.065615981443464
aF0.28219692547750397
aF7.55804204157224e-05
aF6.183689966753316e-05
aF0.0020040507308995243
aF0.009097462559682402
aF0.005896712856225918
aF0.0008102172359965896
aF0.004510829752197913
aF5.342065970470657
aF0.7299668323859986
atp506
Rp507
(dp508
g20
I3
sg394
g29
(g33
S'\xa0F\xb2\xe9uI\xe9?'
p509
tp510
Rp511
sg21
g2
(g22
g4
Ntp512
Rp513
(dp514
g26
g27
sg28
g114
sbsbag2
(g14
g15
(lp515
F9.094879779990037e-05
aF0.1366985998811062
aF0.3777141723621707
aF1.007012080683658e-05
aF4.682722002434101e-05
aF6.108869734438017e-05
aF0.06391077372665288
aF0.1873655711711291
aF0.09540195531054341
aF0.0006169669963403399
aF0.001302461551959797
aF10.602709904797184
aF0.6289506896678183
aF1.4041700164018957e-06
aF6.028389833499836e-05
aF0.002730997230902337
aF0.008550495952499656
aF0.003477632527733394
aF1.1428193144282783e-06
aF0.0036857304306474217
aF13.146438856898932
aF0.21611889680663607
atp516
Rp517
(dp518
g20
I6
sg394
g29
(g33
S'\xcc\xb0\xba\x1a\xcb:\xee?'
p519
tp520
Rp521
sg21
g2
(g22
g4
Ntp522
Rp523
(dp524
g26
g122
sg28
g387
sbsbas.